; Function Attrs: mustprogress nofree norecurse nosync nounwind willreturn memory(read, inaccessiblemem: none) uwtable
define hidden noundef ptr @_Z11luaH_getnumP8LuaTablei(ptr noundef readonly captures(none) %0, i32 noundef %1) local_unnamed_addr #3 {
  %3 = add nsw i32 %1, -1
  %4 = getelementptr inbounds nuw i8, ptr %0, i64 8
  %5 = load i32, ptr %4, align 8, !tbaa !9
  %6 = icmp ult i32 %3, %5
  br i1 %6, label %7, label %12

7:                                                ; preds = %2
  %8 = getelementptr inbounds nuw i8, ptr %0, i64 24
  %9 = load ptr, ptr %8, align 8, !tbaa !20
  %10 = sext i32 %3 to i64
  %11 = getelementptr inbounds %struct.lua_TValue, ptr %9, i64 %10
  br label %.loopexit

12:                                               ; preds = %2
  %13 = getelementptr inbounds nuw i8, ptr %0, i64 32
  %14 = load ptr, ptr %13, align 8, !tbaa !17
  %.not = icmp eq ptr %14, @luaH_dummynode
  br i1 %.not, label %.loopexit, label %15

15:                                               ; preds = %12
  %16 = sitofp i32 %1 to double
  %17 = getelementptr i8, ptr %0, i64 6
  %.val = load i8, ptr %17, align 2, !tbaa !22
  %18 = bitcast double %16 to i64
  %.0.extract.trunc.i = trunc i64 %18 to i32
  %.4.extract.shift.i = lshr i64 %18, 32
  %.4.extract.trunc.i = trunc nuw i64 %.4.extract.shift.i to i32
  %19 = and i32 %.4.extract.trunc.i, 2147483647
  %20 = lshr i32 %19, 18
  %21 = xor i32 %20, %.0.extract.trunc.i
  %22 = mul i32 %21, 1540483477
  %23 = lshr i32 %22, 22
  %24 = xor i32 %23, %19
  %25 = mul i32 %24, 1540483477
  %26 = lshr i32 %25, 17
  %27 = xor i32 %26, %22
  %28 = mul i32 %27, 1540483477
  %29 = lshr i32 %28, 19
  %30 = xor i32 %29, %25
  %31 = mul i32 %30, 1540483477
  %32 = zext nneg i8 %.val to i32
  %notmask.i = shl nsw i32 -1, %32
  %33 = xor i32 %notmask.i, -1
  %34 = and i32 %31, %33
  %35 = zext nneg i32 %34 to i64
  %36 = getelementptr inbounds nuw %struct.LuaNode, ptr %14, i64 %35
  br label %37

37:                                               ; preds = %48, %15
  %.0 = phi ptr [ %36, %15 ], [ %51, %48 ]
  %38 = getelementptr inbounds nuw i8, ptr %.0, i64 28
  %39 = load i32, ptr %38, align 4
  %40 = and i32 %39, 15
  %41 = icmp eq i32 %40, 3
  br i1 %41, label %42, label %46

42:                                               ; preds = %37
  %43 = getelementptr inbounds nuw i8, ptr %.0, i64 16
  %44 = load double, ptr %43, align 8, !tbaa !16
  %45 = fcmp oeq double %44, %16
  br i1 %45, label %.loopexit, label %46

46:                                               ; preds = %42, %37
  %47 = icmp ult i32 %39, 16
  br i1 %47, label %.loopexit, label %48

48:                                               ; preds = %46
  %49 = ashr i32 %39, 4
  %50 = sext i32 %49 to i64
  %51 = getelementptr inbounds %struct.LuaNode, ptr %.0, i64 %50
  br label %37, !llvm.loop !28

.loopexit:                                        ; preds = %42, %46, %12, %7
  %.015 = phi ptr [ %11, %7 ], [ @luaO_nilobject_, %12 ], [ @luaO_nilobject_, %46 ], [ %.0, %42 ]
  ret ptr %.015
}